; Function Attrs: mustprogress nounwind uwtable
define internal noundef zeroext i1 @_ZN12_GLOBAL__N_124X86WinCOFFTargetStreamer18emitFPOEndPrologueEN4llvm5SMLocE(ptr nocapture noundef nonnull readonly align 8 dereferenceable(48) %0, ptr %1) unnamed_addr #0 align 2 {
  %3 = alloca %"class.llvm::Twine", align 8
  %4 = alloca %"class.llvm::Twine", align 8
  %5 = getelementptr inbounds i8, ptr %0, i64 8
  %.val3 = load ptr, ptr %5, align 8
  %6 = getelementptr inbounds i8, ptr %0, i64 40
  %.val4 = load ptr, ptr %6, align 8
  call void @llvm.lifetime.start.p0(i64 40, ptr nonnull %4)
  %.not1.i = icmp eq ptr %.val4, null
  br i1 %.not1.i, label %_ZN12_GLOBAL__N_124X86WinCOFFTargetStreamer18checkInFPOPrologueEN4llvm5SMLocE.exit.thread, label %7

7:                                                ; preds = %2
  %8 = getelementptr inbounds nuw i8, ptr %.val4, i64 16
  %9 = load ptr, ptr %8, align 8
  %.not.i = icmp eq ptr %9, null
  br i1 %.not.i, label %13, label %_ZN12_GLOBAL__N_124X86WinCOFFTargetStreamer18checkInFPOPrologueEN4llvm5SMLocE.exit.thread

_ZN12_GLOBAL__N_124X86WinCOFFTargetStreamer18checkInFPOPrologueEN4llvm5SMLocE.exit.thread: ; preds = %2, %7
  %10 = getelementptr i8, ptr %.val3, i64 8
  %.val4.val.i = load ptr, ptr %10, align 8
  %11 = getelementptr inbounds nuw i8, ptr %4, i64 32
  %12 = getelementptr inbounds nuw i8, ptr %4, i64 33
  store i8 1, ptr %12, align 1
  store ptr @.str.10, ptr %4, align 8
  store i8 3, ptr %11, align 8
  call void @_ZN4llvm9MCContext11reportErrorENS_5SMLocERKNS_5TwineE(ptr noundef nonnull align 8 dereferenceable(2432) %.val4.val.i, ptr %1, ptr noundef nonnull align 8 dereferenceable(34) %4) #13
  call void @llvm.lifetime.end.p0(i64 40, ptr nonnull %4)
  br label %23

13:                                               ; preds = %7
  call void @llvm.lifetime.end.p0(i64 40, ptr nonnull %4)
  call void @llvm.lifetime.start.p0(i64 40, ptr nonnull %3)
  %14 = getelementptr i8, ptr %.val3, i64 8
  %.val.val.i = load ptr, ptr %14, align 8
  %15 = getelementptr inbounds nuw i8, ptr %3, i64 32
  %16 = getelementptr inbounds nuw i8, ptr %3, i64 33
  store i8 1, ptr %16, align 1
  store ptr @.str.9, ptr %3, align 8
  store i8 3, ptr %15, align 8
  %17 = call noundef ptr @_ZN4llvm9MCContext16createTempSymbolERKNS_5TwineEb(ptr noundef nonnull align 8 dereferenceable(2432) %.val.val.i, ptr noundef nonnull align 8 dereferenceable(34) %3, i1 noundef zeroext true) #13
  %18 = load ptr, ptr %5, align 8
  %19 = load ptr, ptr %18, align 8
  %20 = getelementptr inbounds i8, ptr %19, i64 200
  %21 = load ptr, ptr %20, align 8
  call void %21(ptr noundef nonnull align 8 dereferenceable(288) %18, ptr noundef %17, ptr null) #13
  call void @llvm.lifetime.end.p0(i64 40, ptr nonnull %3)
  %.val = load ptr, ptr %6, align 8
  %22 = getelementptr inbounds nuw i8, ptr %.val, i64 16
  store ptr %17, ptr %22, align 8
  br label %23

23:                                               ; preds = %_ZN12_GLOBAL__N_124X86WinCOFFTargetStreamer18checkInFPOPrologueEN4llvm5SMLocE.exit.thread, %13
  %.0.i6 = phi i1 [ true, %_ZN12_GLOBAL__N_124X86WinCOFFTargetStreamer18checkInFPOPrologueEN4llvm5SMLocE.exit.thread ], [ false, %13 ]
  ret i1 %.0.i6
}